; Function Attrs: mustprogress uwtable
define void @_ZN11colvarvalue4typeERKS_(ptr noundef nonnull align 8 dereferenceable(168) %0, ptr noundef nonnull readonly align 8 captures(none) dereferenceable(168) %1) local_unnamed_addr #1 align 2 personality ptr @__gxx_personality_v0 {
  %3 = alloca double, align 8
  %4 = load i32, ptr %1, align 8, !tbaa !4
  %5 = load i32, ptr %0, align 8, !tbaa !4
  %.not = icmp eq i32 %4, %5
  br i1 %.not, label %29, label %6

6:                                                ; preds = %2
  switch i32 %5, label %_ZN12colvarmodule8vector1dIdE5clearEv.exit [
    i32 1, label %7
    i32 2, label %9
    i32 3, label %9
    i32 4, label %9
    i32 5, label %11
    i32 6, label %11
    i32 7, label %_ZN11colvarvalue5resetEv.exit
  ]

7:                                                ; preds = %6
  %8 = getelementptr inbounds nuw i8, ptr %0, i64 8
  store double 0.000000e+00, ptr %8, align 8, !tbaa !39
  br label %_ZN12colvarmodule8vector1dIdE5clearEv.exit

9:                                                ; preds = %6, %6, %6
  %10 = getelementptr inbounds nuw i8, ptr %0, i64 16
  tail call void @llvm.memset.p0.i64(ptr noundef nonnull align 8 dereferenceable(24) %10, i8 0, i64 24, i1 false)
  br label %_ZN12colvarmodule8vector1dIdE5clearEv.exit

11:                                               ; preds = %6, %6
  %12 = getelementptr inbounds nuw i8, ptr %0, i64 40
  tail call void @llvm.memset.p0.i64(ptr noundef nonnull align 8 dereferenceable(32) %12, i8 0, i64 32, i1 false)
  br label %_ZN12colvarmodule8vector1dIdE5clearEv.exit

_ZN11colvarvalue5resetEv.exit:                    ; preds = %6
  %13 = getelementptr inbounds nuw i8, ptr %0, i64 72
  %14 = getelementptr inbounds nuw i8, ptr %0, i64 80
  %15 = load ptr, ptr %14, align 8, !tbaa !28
  %16 = load ptr, ptr %13, align 8, !tbaa !29
  %17 = ptrtoint ptr %15 to i64
  %18 = ptrtoint ptr %16 to i64
  %19 = sub i64 %17, %18
  %20 = ashr exact i64 %19, 3
  call void @llvm.lifetime.start.p0(i64 8, ptr nonnull %3) #26
  store double 0.000000e+00, ptr %3, align 8, !tbaa !31
  call void @_ZNSt6vectorIdSaIdEE14_M_fill_assignEmRKd(ptr noundef nonnull align 8 dereferenceable(24) %13, i64 noundef %20, ptr noundef nonnull align 8 dereferenceable(8) %3)
  call void @llvm.lifetime.end.p0(i64 8, ptr nonnull %3) #26
  %.pr.pre = load i32, ptr %0, align 8, !tbaa !4
  %21 = icmp eq i32 %.pr.pre, 7
  br i1 %21, label %22, label %_ZN12colvarmodule8vector1dIdE5clearEv.exit

22:                                               ; preds = %_ZN11colvarvalue5resetEv.exit
  %23 = getelementptr inbounds nuw i8, ptr %0, i64 72
  %24 = load ptr, ptr %23, align 8, !tbaa !29
  %25 = getelementptr inbounds nuw i8, ptr %0, i64 80
  %26 = load ptr, ptr %25, align 8, !tbaa !28
  %.not.i.i.i = icmp eq ptr %26, %24
  br i1 %.not.i.i.i, label %_ZN12colvarmodule8vector1dIdE5clearEv.exit, label %27

27:                                               ; preds = %22
  store ptr %24, ptr %25, align 8, !tbaa !28
  br label %_ZN12colvarmodule8vector1dIdE5clearEv.exit

_ZN12colvarmodule8vector1dIdE5clearEv.exit:       ; preds = %11, %9, %7, %6, %27, %22, %_ZN11colvarvalue5resetEv.exit
  %28 = load i32, ptr %1, align 8, !tbaa !4
  store i32 %28, ptr %0, align 8, !tbaa !4
  br label %29

29:                                               ; preds = %_ZN12colvarmodule8vector1dIdE5clearEv.exit, %2
  %30 = phi i32 [ %28, %_ZN12colvarmodule8vector1dIdE5clearEv.exit ], [ %4, %2 ]
  %31 = icmp eq i32 %30, 7
  br i1 %31, label %32, label %_ZN12colvarmodule8vector1dIdE6resizeEm.exit

32:                                               ; preds = %29
  %33 = getelementptr inbounds nuw i8, ptr %0, i64 72
  %34 = getelementptr inbounds nuw i8, ptr %1, i64 72
  %35 = getelementptr inbounds nuw i8, ptr %1, i64 80
  %36 = load ptr, ptr %35, align 8, !tbaa !28
  %37 = load ptr, ptr %34, align 8, !tbaa !29
  %38 = ptrtoint ptr %36 to i64
  %39 = ptrtoint ptr %37 to i64
  %40 = sub i64 %38, %39
  %41 = ashr exact i64 %40, 3
  %42 = getelementptr inbounds nuw i8, ptr %0, i64 80
  %43 = load ptr, ptr %42, align 8, !tbaa !28
  %44 = load ptr, ptr %33, align 8, !tbaa !29
  %45 = ptrtoint ptr %43 to i64
  %46 = ptrtoint ptr %44 to i64
  %47 = sub i64 %45, %46
  %48 = ashr exact i64 %47, 3
  %49 = icmp ugt i64 %41, %48
  br i1 %49, label %50, label %52

50:                                               ; preds = %32
  %51 = sub nuw nsw i64 %41, %48
  call void @_ZNSt6vectorIdSaIdEE17_M_default_appendEm(ptr noundef nonnull align 8 dereferenceable(24) %33, i64 noundef %51)
  br label %_ZN12colvarmodule8vector1dIdE6resizeEm.exit

52:                                               ; preds = %32
  %53 = icmp ult i64 %41, %48
  br i1 %53, label %54, label %_ZN12colvarmodule8vector1dIdE6resizeEm.exit

54:                                               ; preds = %52
  %55 = getelementptr inbounds nuw i8, ptr %44, i64 %40
  %.not.i.i.i5 = icmp eq ptr %43, %55
  br i1 %.not.i.i.i5, label %_ZN12colvarmodule8vector1dIdE6resizeEm.exit, label %56

56:                                               ; preds = %54
  store ptr %55, ptr %42, align 8, !tbaa !28
  br label %_ZN12colvarmodule8vector1dIdE6resizeEm.exit

_ZN12colvarmodule8vector1dIdE6resizeEm.exit:      ; preds = %56, %54, %52, %50, %29
  ret void
}